target datalayout = "e-m:e-p270:32:32-p271:32:32-p272:64:64-i64:64-i128:128-f80:128-n8:16:32:64-S128"
target triple = "x86_64-pc-linux-gnu"

%struct.expert_field = type { i32, i32 }

@hf_pn_io_adjust_properties = internal global i32 0, align 4
@hf_pn_io_mau_type = internal global i32 0, align 4
@ei_pn_io_block_version = internal global %struct.expert_field zeroinitializer, align 4
@.str.1317 = private unnamed_addr constant [41 x i8] c"Block version %u.%u not implemented yet!\00", align 1
@.str.1370 = private unnamed_addr constant [5 x i8] c"0x%x\00", align 1
@.str.1563 = private unnamed_addr constant [30 x i8] c": MAUType:%s, Properties:0x%x\00", align 1

; Function Attrs: nounwind uwtable
define internal i32 @dissect_AdjustMAUType_block(ptr noundef %0, i32 noundef %1, ptr noundef %2, ptr noundef %3, ptr noundef %4, ptr noundef %5, i8 noundef zeroext %6, i8 noundef zeroext %7) #0 {
  %9 = alloca i32, align 4
  %10 = alloca ptr, align 8
  %11 = alloca i32, align 4
  %12 = alloca ptr, align 8
  %13 = alloca ptr, align 8
  %14 = alloca ptr, align 8
  %15 = alloca ptr, align 8
  %16 = alloca i8, align 1
  %17 = alloca i8, align 1
  %18 = alloca i16, align 2
  %19 = alloca i16, align 2
  store ptr %0, ptr %10, align 8
  store i32 %1, ptr %11, align 4
  store ptr %2, ptr %12, align 8
  store ptr %3, ptr %13, align 8
  store ptr %4, ptr %14, align 8
  store ptr %5, ptr %15, align 8
  store i8 %6, ptr %16, align 1
  store i8 %7, ptr %17, align 1
  %20 = load i8, ptr %16, align 1
  %21 = zext i8 %20 to i32
  %22 = icmp ne i32 %21, 1
  br i1 %22, label %27, label %23

23:                                               ; preds = %8
  %24 = load i8, ptr %17, align 1
  %25 = zext i8 %24 to i32
  %26 = icmp ne i32 %25, 0
  br i1 %26, label %27, label %36

27:                                               ; preds = %23, %8
  %28 = load ptr, ptr %12, align 8
  %29 = load ptr, ptr %14, align 8
  %30 = load i8, ptr %16, align 1
  %31 = zext i8 %30 to i32
  %32 = load i8, ptr %17, align 1
  %33 = zext i8 %32 to i32
  %34 = call ptr (ptr, ptr, ptr, ptr, ...) @expert_add_info_format(ptr noundef %28, ptr noundef %29, ptr noundef @ei_pn_io_block_version, ptr noundef @.str.1317, i32 noundef %31, i32 noundef %33)
  %35 = load i32, ptr %11, align 4
  store i32 %35, ptr %9, align 4
  br label %63

36:                                               ; preds = %23
  %37 = load ptr, ptr %10, align 8
  %38 = load i32, ptr %11, align 4
  %39 = load ptr, ptr %12, align 8
  %40 = load ptr, ptr %13, align 8
  %41 = call i32 @dissect_pn_align4(ptr noundef %37, i32 noundef %38, ptr noundef %39, ptr noundef %40)
  store i32 %41, ptr %11, align 4
  %42 = load ptr, ptr %10, align 8
  %43 = load i32, ptr %11, align 4
  %44 = load ptr, ptr %12, align 8
  %45 = load ptr, ptr %13, align 8
  %46 = load ptr, ptr %15, align 8
  %47 = load i32, ptr @hf_pn_io_mau_type, align 4
  %48 = call i32 @dissect_dcerpc_uint16(ptr noundef %42, i32 noundef %43, ptr noundef %44, ptr noundef %45, ptr noundef %46, i32 noundef %47, ptr noundef %18)
  store i32 %48, ptr %11, align 4
  %49 = load ptr, ptr %10, align 8
  %50 = load i32, ptr %11, align 4
  %51 = load ptr, ptr %12, align 8
  %52 = load ptr, ptr %13, align 8
  %53 = load ptr, ptr %15, align 8
  %54 = load i32, ptr @hf_pn_io_adjust_properties, align 4
  %55 = call i32 @dissect_dcerpc_uint16(ptr noundef %49, i32 noundef %50, ptr noundef %51, ptr noundef %52, ptr noundef %53, i32 noundef %54, ptr noundef %19)
  store i32 %55, ptr %11, align 4
  %56 = load ptr, ptr %14, align 8
  %57 = load i16, ptr %18, align 2
  %58 = zext i16 %57 to i32
  %59 = call ptr @val_to_str(i32 noundef %58, ptr noundef @pn_io_mau_type, ptr noundef @.str.1370)
  %60 = load i16, ptr %19, align 2
  %61 = zext i16 %60 to i32
  call void (ptr, ptr, ...) @proto_item_append_text(ptr noundef %56, ptr noundef @.str.1563, ptr noundef %59, i32 noundef %61)
  %62 = load i32, ptr %11, align 4
  store i32 %62, ptr %9, align 4
  br label %63

63:                                               ; preds = %36, %27
  %64 = load i32, ptr %9, align 4
  ret i32 %64
}