; Function Attrs: nounwind uwtable
define internal fastcc void @dissect_AdjustMAUType_block(ptr noundef %0, i32 noundef %1, ptr noundef %2, ptr noundef %3, ptr noundef %4, ptr noundef %5, i8 noundef zeroext %6, i8 noundef zeroext %7) unnamed_addr #0 {
  %9 = alloca i16, align 2
  %10 = alloca i16, align 2
  %11 = icmp ne i8 %6, 1
  %12 = icmp ne i8 %7, 0
  %or.cond = or i1 %11, %12
  br i1 %or.cond, label %13, label %17

13:                                               ; preds = %8
  %14 = zext i8 %7 to i32
  %15 = zext i8 %6 to i32
  %16 = tail call ptr (ptr, ptr, ptr, ptr, ...) @expert_add_info_format(ptr noundef %2, ptr noundef %4, ptr noundef nonnull @ei_pn_io_block_version, ptr noundef nonnull @.str.1317, i32 noundef %15, i32 noundef %14) #11
  br label %28

17:                                               ; preds = %8
  %18 = tail call i32 @dissect_pn_align4(ptr noundef %0, i32 noundef %1, ptr noundef %2, ptr noundef %3) #11
  %19 = load i32, ptr @hf_pn_io_mau_type, align 4
  %20 = call i32 @dissect_dcerpc_uint16(ptr noundef %0, i32 noundef %18, ptr noundef %2, ptr noundef %3, ptr noundef %5, i32 noundef %19, ptr noundef nonnull %9) #11
  %21 = load i32, ptr @hf_pn_io_adjust_properties, align 4
  %22 = call i32 @dissect_dcerpc_uint16(ptr noundef %0, i32 noundef %20, ptr noundef %2, ptr noundef %3, ptr noundef %5, i32 noundef %21, ptr noundef nonnull %10) #11
  %23 = load i16, ptr %9, align 2
  %24 = zext i16 %23 to i32
  %25 = call ptr @val_to_str(i32 noundef %24, ptr noundef nonnull @pn_io_mau_type, ptr noundef nonnull @.str.1370) #11
  %26 = load i16, ptr %10, align 2
  %27 = zext i16 %26 to i32
  call void (ptr, ptr, ...) @proto_item_append_text(ptr noundef %4, ptr noundef nonnull @.str.1563, ptr noundef %25, i32 noundef %27) #11
  br label %28

28:                                               ; preds = %17, %13
  ret void
}